target datalayout = "e-m:e-p270:32:32-p271:32:32-p272:64:64-i64:64-i128:128-f80:128-n8:16:32:64-S128"
target triple = "x86_64-unknown-linux-gnu"

%"class.fmt::v10::file" = type { i32 }

@file_content = external constant ptr, align 8

; Function Attrs: mustprogress nounwind uwtable
define linkonce_odr hidden void @_ZN3fmt3v104fileC2Ev(ptr noundef nonnull align 4 dereferenceable(4) %this) unnamed_addr #6 comdat align 2 {
entry:
  %this.addr = alloca ptr, align 8
  store ptr %this, ptr %this.addr, align 8
  %this1 = load ptr, ptr %this.addr, align 8
  %fd_ = getelementptr inbounds %"class.fmt::v10::file", ptr %this1, i32 0, i32 0
  store i32 -1, ptr %fd_, align 4
  ret void
}

; Function Attrs: mustprogress uwtable
define hidden void @_Z9open_filev(ptr noalias sret(%"class.fmt::v10::file") align 4 %agg.result) #4 personality ptr @__gxx_personality_v0 {
entry:
  %result.ptr = alloca ptr, align 8
  %nrvo = alloca i1, align 1
  %write_end = alloca %"class.fmt::v10::file", align 4
  %exn.slot = alloca ptr, align 8
  %ehselector.slot = alloca i32, align 4
  store ptr %agg.result, ptr %result.ptr, align 8
  store i1 false, ptr %nrvo, align 1
  call void @_ZN3fmt3v104fileC2Ev(ptr noundef nonnull align 4 dereferenceable(4) %agg.result) #3
  call void @_ZN3fmt3v104fileC2Ev(ptr noundef nonnull align 4 dereferenceable(4) %write_end) #3
  invoke void @_ZN3fmt3v104file4pipeERS1_S2_(ptr noundef nonnull align 4 dereferenceable(4) %agg.result, ptr noundef nonnull align 4 dereferenceable(4) %write_end)
          to label %invoke.cont unwind label %lpad

invoke.cont:                                      ; preds = %entry
  %0 = load ptr, ptr @file_content, align 8
  %1 = load ptr, ptr @file_content, align 8
  %call = call i64 @strlen(ptr noundef %1) #20
  %call2 = invoke noundef i64 @_ZN3fmt3v104file5writeEPKvm(ptr noundef nonnull align 4 dereferenceable(4) %write_end, ptr noundef %0, i64 noundef %call)
          to label %invoke.cont1 unwind label %lpad

invoke.cont1:                                     ; preds = %invoke.cont
  invoke void @_ZN3fmt3v104file5closeEv(ptr noundef nonnull align 4 dereferenceable(4) %write_end)
          to label %invoke.cont3 unwind label %lpad

invoke.cont3:                                     ; preds = %invoke.cont1
  store i1 true, ptr %nrvo, align 1
  call void @_ZN3fmt3v104fileD1Ev(ptr noundef nonnull align 4 dereferenceable(4) %write_end) #3
  %nrvo.val = load i1, ptr %nrvo, align 1
  br i1 %nrvo.val, label %nrvo.skipdtor, label %nrvo.unused

lpad:                                             ; preds = %invoke.cont1, %invoke.cont, %entry
  %2 = landingpad { ptr, i32 }
          cleanup
  %3 = extractvalue { ptr, i32 } %2, 0
  store ptr %3, ptr %exn.slot, align 8
  %4 = extractvalue { ptr, i32 } %2, 1
  store i32 %4, ptr %ehselector.slot, align 4
  call void @_ZN3fmt3v104fileD1Ev(ptr noundef nonnull align 4 dereferenceable(4) %write_end) #3
  call void @_ZN3fmt3v104fileD1Ev(ptr noundef nonnull align 4 dereferenceable(4) %agg.result) #3
  br label %eh.resume

nrvo.unused:                                      ; preds = %invoke.cont3
  call void @_ZN3fmt3v104fileD1Ev(ptr noundef nonnull align 4 dereferenceable(4) %agg.result) #3
  br label %nrvo.skipdtor

nrvo.skipdtor:                                    ; preds = %nrvo.unused, %invoke.cont3
  ret void

eh.resume:                                        ; preds = %lpad
  %exn = load ptr, ptr %exn.slot, align 8
  %sel = load i32, ptr %ehselector.slot, align 4
  %lpad.val = insertvalue { ptr, i32 } poison, ptr %exn, 0
  %lpad.val4 = insertvalue { ptr, i32 } %lpad.val, i32 %sel, 1
  resume { ptr, i32 } %lpad.val4
}