; Function Attrs: mustprogress uwtable
define hidden void @_Z9open_filev(ptr noalias nonnull sret(%"class.fmt::v10::file") align 4 %agg.result) local_unnamed_addr #6 personality ptr @__gxx_personality_v0 {
entry:
  %write_end = alloca %"class.fmt::v10::file", align 4
  store i32 -1, ptr %agg.result, align 4
  store i32 -1, ptr %write_end, align 4
  invoke void @_ZN3fmt3v104file4pipeERS1_S2_(ptr noundef nonnull align 4 dereferenceable(4) %agg.result, ptr noundef nonnull align 4 dereferenceable(4) %write_end)
          to label %invoke.cont unwind label %lpad

invoke.cont:                                      ; preds = %entry
  %0 = load ptr, ptr @file_content, align 8
  %call = call i64 @strlen(ptr noundef nonnull dereferenceable(1) %0) #24
  %call2 = invoke noundef i64 @_ZN3fmt3v104file5writeEPKvm(ptr noundef nonnull align 4 dereferenceable(4) %write_end, ptr noundef %0, i64 noundef %call)
          to label %invoke.cont1 unwind label %lpad

invoke.cont1:                                     ; preds = %invoke.cont
  invoke void @_ZN3fmt3v104file5closeEv(ptr noundef nonnull align 4 dereferenceable(4) %write_end)
          to label %invoke.cont3 unwind label %lpad

invoke.cont3:                                     ; preds = %invoke.cont1
  call void @_ZN3fmt3v104fileD1Ev(ptr noundef nonnull align 4 dereferenceable(4) %write_end) #25
  ret void

lpad:                                             ; preds = %invoke.cont1, %invoke.cont, %entry
  %1 = landingpad { ptr, i32 }
          cleanup
  call void @_ZN3fmt3v104fileD1Ev(ptr noundef nonnull align 4 dereferenceable(4) %write_end) #25
  call void @_ZN3fmt3v104fileD1Ev(ptr noundef nonnull align 4 dereferenceable(4) %agg.result) #25
  resume { ptr, i32 } %1
}